target datalayout = "e-m:e-p270:32:32-p271:32:32-p272:64:64-i64:64-i128:128-f80:128-n8:16:32:64-S128"
target triple = "x86_64-pc-linux-gnu"

%struct.darktable_t = type { %struct.dt_codepath_t, i32, i32, ptr, ptr, ptr, ptr, ptr, ptr, ptr, ptr, ptr, ptr, ptr, ptr, ptr, ptr, ptr, ptr, ptr, ptr, ptr, ptr, ptr, ptr, ptr, ptr, ptr, ptr, ptr, [64 x %struct.dt_pthread_mutex_t], %struct.dt_pthread_mutex_t, %struct.dt_pthread_mutex_t, %struct.dt_pthread_mutex_t, %struct.dt_pthread_mutex_t, %struct.dt_pthread_mutex_t, ptr, ptr, ptr, ptr, ptr, ptr, ptr, ptr, ptr, ptr, ptr, ptr, ptr, %struct.dt_lua_state_t, ptr, double, ptr, i32, [47 x i32], i32, i32, ptr, ptr, %struct.dt_sys_resources_t, %struct.dt_backthumb_t, %struct.dt_gimp_t }
%struct.dt_codepath_t = type { i8, [3 x i8] }
%struct.dt_pthread_mutex_t = type { %union.pthread_mutex_t }
%union.pthread_mutex_t = type { %struct.__pthread_mutex_s }
%struct.__pthread_mutex_s = type { i32, i32, i32, i32, i32, i16, i16, %struct.__pthread_internal_list }
%struct.__pthread_internal_list = type { ptr, ptr }
%struct.dt_lua_state_t = type { i32 }
%struct.dt_sys_resources_t = type { i64, i64, ptr, ptr, i32 }
%struct.dt_backthumb_t = type { double, double, i32, i32, i32, i32 }
%struct.dt_gimp_t = type { i32, ptr, ptr, i32, i32 }
%struct.backend_kwallet_context_t = type { ptr, ptr, ptr }
%struct._GError = type { i32, i32, ptr }

@darktable = external global %struct.darktable_t, align 8
@kwallet_folder = internal global ptr @.str.31, align 8
@app_id = internal global ptr @.str.32, align 8
@.str.6 = private unnamed_addr constant [9 x i8] c"hasEntry\00", align 1
@.str.7 = private unnamed_addr constant [7 x i8] c"(isss)\00", align 1
@.str.8 = private unnamed_addr constant [12 x i8] c"readMapList\00", align 1
@.str.9 = private unnamed_addr constant [5 x i8] c"{sv}\00", align 1
@.str.10 = private unnamed_addr constant [41 x i8] c"[pwstorage_kwallet_get] reading (%s, %s)\00", align 1
@.str.11 = private unnamed_addr constant [63 x i8] c"[pwstorage_kwallet] ERROR: failed to complete kwallet call: %s\00", align 1

; Function Attrs: nounwind uwtable
define internal i32 @check_error(ptr noundef %0) #0 {
  %2 = alloca i32, align 4
  %3 = alloca ptr, align 8
  store ptr %0, ptr %3, align 8, !tbaa !11
  %4 = load ptr, ptr %3, align 8, !tbaa !11
  %5 = icmp ne ptr %4, null
  br i1 %5, label %6, label %23

6:                                                ; preds = %1
  br label %7

7:                                                ; preds = %6
  %8 = load i32, ptr getelementptr inbounds nuw (%struct.darktable_t, ptr @darktable, i32 0, i32 2), align 8, !tbaa !18
  %9 = and i32 64, %8
  %10 = icmp ne i32 %9, 0
  br i1 %10, label %11, label %20

11:                                               ; preds = %7
  %12 = load i32, ptr getelementptr inbounds nuw (%struct.darktable_t, ptr @darktable, i32 0, i32 2), align 8, !tbaa !18
  %13 = xor i32 %12, -1
  %14 = and i32 0, %13
  %15 = icmp ne i32 %14, 0
  br i1 %15, label %20, label %16

16:                                               ; preds = %11
  %17 = load ptr, ptr %3, align 8, !tbaa !11
  %18 = getelementptr inbounds nuw %struct._GError, ptr %17, i32 0, i32 2
  %19 = load ptr, ptr %18, align 8, !tbaa !56
  call void (ptr, ...) @dt_print_ext(ptr noundef @.str.11, ptr noundef %19)
  br label %20

20:                                               ; preds = %16, %11, %7
  br label %21

21:                                               ; preds = %20
  %22 = load ptr, ptr %3, align 8, !tbaa !11
  call void @g_error_free(ptr noundef %22)
  store i32 1, ptr %2, align 4
  br label %24

23:                                               ; preds = %1
  store i32 0, ptr %2, align 4
  br label %24

24:                                               ; preds = %23, %21
  %25 = load i32, ptr %2, align 4
  ret i32 %25
}

; Function Attrs: nounwind uwtable
define ptr @dt_pwstorage_kwallet_get(ptr noundef %0, ptr noundef %1) #0 {
  %3 = alloca ptr, align 8
  %4 = alloca ptr, align 8
  %5 = alloca ptr, align 8
  %6 = alloca ptr, align 8
  %7 = alloca ptr, align 8
  %8 = alloca i32, align 4
  %9 = alloca i32, align 4
  %10 = alloca ptr, align 8
  %11 = alloca i32, align 4
  %12 = alloca ptr, align 8
  %13 = alloca ptr, align 8
  %14 = alloca ptr, align 8
  %15 = alloca ptr, align 8
  %16 = alloca i32, align 4
  %17 = alloca i32, align 4
  %18 = alloca i32, align 4
  %19 = alloca i32, align 4
  %20 = alloca i32, align 4
  %21 = alloca i32, align 4
  %22 = alloca ptr, align 8
  %23 = alloca ptr, align 8
  store ptr %0, ptr %4, align 8, !tbaa !6
  store ptr %1, ptr %5, align 8, !tbaa !59
  call void @llvm.lifetime.start.p0(i64 8, ptr %6) #8
  %24 = call ptr @g_hash_table_new_full(ptr noundef @g_str_hash, ptr noundef @g_str_equal, ptr noundef @g_free, ptr noundef @g_free)
  store ptr %24, ptr %6, align 8, !tbaa !65
  call void @llvm.lifetime.start.p0(i64 8, ptr %7) #8
  store ptr null, ptr %7, align 8, !tbaa !11
  call void @llvm.lifetime.start.p0(i64 4, ptr %8) #8
  store i32 0, ptr %8, align 4, !tbaa !62
  call void @llvm.lifetime.start.p0(i64 4, ptr %9) #8
  %25 = load ptr, ptr %4, align 8, !tbaa !6
  %26 = call i32 @get_wallet_handle(ptr noundef %25)
  store i32 %26, ptr %9, align 4, !tbaa !62
  call void @llvm.lifetime.start.p0(i64 8, ptr %10) #8
  %27 = load ptr, ptr %4, align 8, !tbaa !6
  %28 = getelementptr inbounds nuw %struct.backend_kwallet_context_t, ptr %27, i32 0, i32 1
  %29 = load ptr, ptr %28, align 8, !tbaa !58
  %30 = load i32, ptr %9, align 4, !tbaa !62
  %31 = load ptr, ptr @kwallet_folder, align 8, !tbaa !59
  %32 = load ptr, ptr %5, align 8, !tbaa !59
  %33 = load ptr, ptr @app_id, align 8, !tbaa !59
  %34 = call ptr (ptr, ...) @g_variant_new(ptr noundef @.str.7, i32 noundef %30, ptr noundef %31, ptr noundef %32, ptr noundef %33)
  %35 = call ptr @g_dbus_proxy_call_sync(ptr noundef %29, ptr noundef @.str.6, ptr noundef %34, i32 noundef 0, i32 noundef -1, ptr noundef null, ptr noundef %7)
  store ptr %35, ptr %10, align 8, !tbaa !60
  %36 = load ptr, ptr %7, align 8, !tbaa !11
  %37 = call i32 @check_error(ptr noundef %36)
  %38 = icmp ne i32 %37, 0
  br i1 %38, label %39, label %42

39:                                               ; preds = %2
  %40 = load ptr, ptr %10, align 8, !tbaa !60
  call void @g_variant_unref(ptr noundef %40)
  %41 = load ptr, ptr %6, align 8, !tbaa !65
  store ptr %41, ptr %3, align 8
  store i32 1, ptr %11, align 4
  br label %170

42:                                               ; preds = %2
  call void @llvm.lifetime.start.p0(i64 8, ptr %12) #8
  %43 = load ptr, ptr %10, align 8, !tbaa !60
  %44 = call ptr @g_variant_get_child_value(ptr noundef %43, i64 noundef 0)
  store ptr %44, ptr %12, align 8, !tbaa !60
  %45 = load ptr, ptr %12, align 8, !tbaa !60
  %46 = call i32 @g_variant_get_boolean(ptr noundef %45)
  store i32 %46, ptr %8, align 4, !tbaa !62
  %47 = load ptr, ptr %12, align 8, !tbaa !60
  call void @g_variant_unref(ptr noundef %47)
  %48 = load ptr, ptr %10, align 8, !tbaa !60
  call void @g_variant_unref(ptr noundef %48)
  %49 = load i32, ptr %8, align 4, !tbaa !62
  %50 = icmp ne i32 %49, 0
  br i1 %50, label %53, label %51

51:                                               ; preds = %42
  %52 = load ptr, ptr %6, align 8, !tbaa !65
  store ptr %52, ptr %3, align 8
  store i32 1, ptr %11, align 4
  br label %169

53:                                               ; preds = %42
  %54 = load ptr, ptr %4, align 8, !tbaa !6
  %55 = getelementptr inbounds nuw %struct.backend_kwallet_context_t, ptr %54, i32 0, i32 1
  %56 = load ptr, ptr %55, align 8, !tbaa !58
  %57 = load i32, ptr %9, align 4, !tbaa !62
  %58 = load ptr, ptr @kwallet_folder, align 8, !tbaa !59
  %59 = load ptr, ptr %5, align 8, !tbaa !59
  %60 = load ptr, ptr @app_id, align 8, !tbaa !59
  %61 = call ptr (ptr, ...) @g_variant_new(ptr noundef @.str.7, i32 noundef %57, ptr noundef %58, ptr noundef %59, ptr noundef %60)
  %62 = call ptr @g_dbus_proxy_call_sync(ptr noundef %56, ptr noundef @.str.8, ptr noundef %61, i32 noundef 0, i32 noundef -1, ptr noundef null, ptr noundef %7)
  store ptr %62, ptr %10, align 8, !tbaa !60
  %63 = load ptr, ptr %7, align 8, !tbaa !11
  %64 = call i32 @check_error(ptr noundef %63)
  %65 = icmp ne i32 %64, 0
  br i1 %65, label %66, label %69

66:                                               ; preds = %53
  %67 = load ptr, ptr %10, align 8, !tbaa !60
  call void @g_variant_unref(ptr noundef %67)
  %68 = load ptr, ptr %6, align 8, !tbaa !65
  store ptr %68, ptr %3, align 8
  store i32 1, ptr %11, align 4
  br label %169

69:                                               ; preds = %53
  %70 = load ptr, ptr %10, align 8, !tbaa !60
  %71 = call ptr @g_variant_get_child_value(ptr noundef %70, i64 noundef 0)
  store ptr %71, ptr %12, align 8, !tbaa !60
  %72 = load ptr, ptr %12, align 8, !tbaa !60
  %73 = call i64 @g_variant_n_children(ptr noundef %72)
  %74 = icmp ult i64 %73, 1
  br i1 %74, label %75, label %79

75:                                               ; preds = %69
  %76 = load ptr, ptr %12, align 8, !tbaa !60
  call void @g_variant_unref(ptr noundef %76)
  %77 = load ptr, ptr %10, align 8, !tbaa !60
  call void @g_variant_unref(ptr noundef %77)
  %78 = load ptr, ptr %6, align 8, !tbaa !65
  store ptr %78, ptr %3, align 8
  store i32 1, ptr %11, align 4
  br label %169

79:                                               ; preds = %69
  call void @llvm.lifetime.start.p0(i64 8, ptr %13) #8
  %80 = load ptr, ptr %12, align 8, !tbaa !60
  %81 = call ptr @g_variant_get_child_value(ptr noundef %80, i64 noundef 0)
  store ptr %81, ptr %13, align 8, !tbaa !60
  call void @llvm.lifetime.start.p0(i64 8, ptr %14) #8
  store ptr null, ptr %14, align 8, !tbaa !60
  %82 = load ptr, ptr %13, align 8, !tbaa !60
  call void (ptr, ptr, ...) @g_variant_get(ptr noundef %82, ptr noundef @.str.9, ptr noundef null, ptr noundef %14)
  call void @llvm.lifetime.start.p0(i64 8, ptr %15) #8
  %83 = load ptr, ptr %14, align 8, !tbaa !60
  %84 = call ptr @g_variant_get_data(ptr noundef %83)
  store ptr %84, ptr %15, align 8, !tbaa !59
  %85 = load ptr, ptr %15, align 8, !tbaa !59
  %86 = icmp ne ptr %85, null
  br i1 %86, label %93, label %87

87:                                               ; preds = %79
  %88 = load ptr, ptr %14, align 8, !tbaa !60
  call void @g_variant_unref(ptr noundef %88)
  %89 = load ptr, ptr %13, align 8, !tbaa !60
  call void @g_variant_unref(ptr noundef %89)
  %90 = load ptr, ptr %12, align 8, !tbaa !60
  call void @g_variant_unref(ptr noundef %90)
  %91 = load ptr, ptr %10, align 8, !tbaa !60
  call void @g_variant_unref(ptr noundef %91)
  %92 = load ptr, ptr %6, align 8, !tbaa !65
  store ptr %92, ptr %3, align 8
  store i32 1, ptr %11, align 4
  br label %168

93:                                               ; preds = %79
  call void @llvm.lifetime.start.p0(i64 4, ptr %16) #8
  call void @llvm.lifetime.start.p0(i64 4, ptr %17) #8
  call void @llvm.lifetime.start.p0(i64 4, ptr %18) #8
  %94 = load ptr, ptr %15, align 8, !tbaa !59
  %95 = load i32, ptr %94, align 4, !tbaa !62
  store i32 %95, ptr %18, align 4, !tbaa !62
  %96 = load i32, ptr %18, align 4, !tbaa !62
  %97 = call i1 @llvm.is.constant.i32(i32 %96)
  br i1 %97, label %98, label %114

98:                                               ; preds = %93
  %99 = load i32, ptr %18, align 4, !tbaa !62
  %100 = and i32 %99, 255
  %101 = shl i32 %100, 24
  %102 = load i32, ptr %18, align 4, !tbaa !62
  %103 = and i32 %102, 65280
  %104 = shl i32 %103, 8
  %105 = or i32 %101, %104
  %106 = load i32, ptr %18, align 4, !tbaa !62
  %107 = and i32 %106, 16711680
  %108 = lshr i32 %107, 8
  %109 = or i32 %105, %108
  %110 = load i32, ptr %18, align 4, !tbaa !62
  %111 = and i32 %110, -16777216
  %112 = lshr i32 %111, 24
  %113 = or i32 %109, %112
  store i32 %113, ptr %17, align 4, !tbaa !62
  br label %117

114:                                              ; preds = %93
  %115 = load i32, ptr %18, align 4, !tbaa !62
  %116 = call i32 asm "bswapl $0", "=r,0,~{dirflag},~{fpsr},~{flags}"(i32 %115) #10, !srcloc !82
  store i32 %116, ptr %17, align 4, !tbaa !62
  br label %117

117:                                              ; preds = %114, %98
  %118 = load i32, ptr %17, align 4, !tbaa !62
  store i32 %118, ptr %19, align 4, !tbaa !62
  call void @llvm.lifetime.end.p0(i64 4, ptr %18) #8
  call void @llvm.lifetime.end.p0(i64 4, ptr %17) #8
  %119 = load i32, ptr %19, align 4, !tbaa !62
  store i32 %119, ptr %16, align 4, !tbaa !62
  %120 = load ptr, ptr %15, align 8, !tbaa !59
  %121 = getelementptr inbounds nuw i8, ptr %120, i64 4
  store ptr %121, ptr %15, align 8, !tbaa !59
  call void @llvm.lifetime.start.p0(i64 4, ptr %20) #8
  store i32 0, ptr %20, align 4, !tbaa !62
  br label %122

122:                                              ; preds = %159, %117
  %123 = load i32, ptr %20, align 4, !tbaa !62
  %124 = load i32, ptr %16, align 4, !tbaa !62
  %125 = icmp slt i32 %123, %124
  br i1 %125, label %127, label %126

126:                                              ; preds = %122
  store i32 2, ptr %11, align 4
  call void @llvm.lifetime.end.p0(i64 4, ptr %20) #8
  br label %162

127:                                              ; preds = %122
  call void @llvm.lifetime.start.p0(i64 4, ptr %21) #8
  call void @llvm.lifetime.start.p0(i64 8, ptr %22) #8
  %128 = load ptr, ptr %15, align 8, !tbaa !59
  %129 = call ptr @array2string(ptr noundef %128, ptr noundef %21)
  store ptr %129, ptr %22, align 8, !tbaa !59
  %130 = load i32, ptr %21, align 4, !tbaa !62
  %131 = load ptr, ptr %15, align 8, !tbaa !59
  %132 = zext i32 %130 to i64
  %133 = getelementptr inbounds nuw i8, ptr %131, i64 %132
  store ptr %133, ptr %15, align 8, !tbaa !59
  call void @llvm.lifetime.start.p0(i64 8, ptr %23) #8
  %134 = load ptr, ptr %15, align 8, !tbaa !59
  %135 = call ptr @array2string(ptr noundef %134, ptr noundef %21)
  store ptr %135, ptr %23, align 8, !tbaa !59
  %136 = load i32, ptr %21, align 4, !tbaa !62
  %137 = load ptr, ptr %15, align 8, !tbaa !59
  %138 = zext i32 %136 to i64
  %139 = getelementptr inbounds nuw i8, ptr %137, i64 %138
  store ptr %139, ptr %15, align 8, !tbaa !59
  br label %140

140:                                              ; preds = %127
  %141 = load i32, ptr getelementptr inbounds nuw (%struct.darktable_t, ptr @darktable, i32 0, i32 2), align 8, !tbaa !18
  %142 = and i32 64, %141
  %143 = icmp ne i32 %142, 0
  br i1 %143, label %144, label %152

144:                                              ; preds = %140
  %145 = load i32, ptr getelementptr inbounds nuw (%struct.darktable_t, ptr @darktable, i32 0, i32 2), align 8, !tbaa !18
  %146 = xor i32 %145, -1
  %147 = and i32 0, %146
  %148 = icmp ne i32 %147, 0
  br i1 %148, label %152, label %149

149:                                              ; preds = %144
  %150 = load ptr, ptr %22, align 8, !tbaa !59
  %151 = load ptr, ptr %23, align 8, !tbaa !59
  call void (ptr, ...) @dt_print_ext(ptr noundef @.str.10, ptr noundef %150, ptr noundef %151)
  br label %152

152:                                              ; preds = %149, %144, %140
  br label %153

153:                                              ; preds = %152
  br label %154

154:                                              ; preds = %153
  %155 = load ptr, ptr %6, align 8, !tbaa !65
  %156 = load ptr, ptr %22, align 8, !tbaa !59
  %157 = load ptr, ptr %23, align 8, !tbaa !59
  %158 = call i32 @g_hash_table_insert(ptr noundef %155, ptr noundef %156, ptr noundef %157)
  call void @llvm.lifetime.end.p0(i64 8, ptr %23) #8
  call void @llvm.lifetime.end.p0(i64 8, ptr %22) #8
  call void @llvm.lifetime.end.p0(i64 4, ptr %21) #8
  br label %159

159:                                              ; preds = %154
  %160 = load i32, ptr %20, align 4, !tbaa !62
  %161 = add nsw i32 %160, 1
  store i32 %161, ptr %20, align 4, !tbaa !62
  br label %122

162:                                              ; preds = %126
  %163 = load ptr, ptr %14, align 8, !tbaa !60
  call void @g_variant_unref(ptr noundef %163)
  %164 = load ptr, ptr %13, align 8, !tbaa !60
  call void @g_variant_unref(ptr noundef %164)
  %165 = load ptr, ptr %12, align 8, !tbaa !60
  call void @g_variant_unref(ptr noundef %165)
  %166 = load ptr, ptr %10, align 8, !tbaa !60
  call void @g_variant_unref(ptr noundef %166)
  %167 = load ptr, ptr %6, align 8, !tbaa !65
  store ptr %167, ptr %3, align 8
  store i32 1, ptr %11, align 4
  call void @llvm.lifetime.end.p0(i64 4, ptr %16) #8
  br label %168

168:                                              ; preds = %162, %87
  call void @llvm.lifetime.end.p0(i64 8, ptr %15) #8
  call void @llvm.lifetime.end.p0(i64 8, ptr %14) #8
  call void @llvm.lifetime.end.p0(i64 8, ptr %13) #8
  br label %169

169:                                              ; preds = %168, %75, %66, %51
  call void @llvm.lifetime.end.p0(i64 8, ptr %12) #8
  br label %170

170:                                              ; preds = %169, %39
  call void @llvm.lifetime.end.p0(i64 8, ptr %10) #8
  call void @llvm.lifetime.end.p0(i64 4, ptr %9) #8
  call void @llvm.lifetime.end.p0(i64 4, ptr %8) #8
  call void @llvm.lifetime.end.p0(i64 8, ptr %7) #8
  call void @llvm.lifetime.end.p0(i64 8, ptr %6) #8
  %171 = load ptr, ptr %3, align 8
  ret ptr %171
}