; Function Attrs: nounwind uwtable
define ptr @dt_pwstorage_kwallet_get(ptr noundef readonly captures(none) %0, ptr noundef %1) local_unnamed_addr #0 {
  %3 = alloca ptr, align 8
  %4 = alloca ptr, align 8
  %5 = alloca i32, align 4
  %6 = tail call ptr @g_hash_table_new_full(ptr noundef nonnull @g_str_hash, ptr noundef nonnull @g_str_equal, ptr noundef nonnull @g_free, ptr noundef nonnull @g_free) #10
  call void @llvm.lifetime.start.p0(i64 8, ptr nonnull %3) #10
  store ptr null, ptr %3, align 8, !tbaa !6
  %7 = tail call fastcc i32 @get_wallet_handle(ptr noundef %0)
  %8 = getelementptr inbounds nuw i8, ptr %0, i64 8
  %9 = load ptr, ptr %8, align 8, !tbaa !57
  %10 = tail call ptr (ptr, ...) @g_variant_new(ptr noundef nonnull @.str.7, i32 noundef %7, ptr noundef nonnull @.str.31, ptr noundef %1, ptr noundef nonnull @.str.32) #10
  %11 = call ptr @g_dbus_proxy_call_sync(ptr noundef %9, ptr noundef nonnull @.str.6, ptr noundef %10, i32 noundef 0, i32 noundef -1, ptr noundef null, ptr noundef nonnull %3) #10
  %12 = load ptr, ptr %3, align 8, !tbaa !6
  %.not.i = icmp eq ptr %12, null
  br i1 %.not.i, label %20, label %13

13:                                               ; preds = %2
  %14 = load i32, ptr getelementptr inbounds nuw (i8, ptr @darktable, i64 8), align 8, !tbaa !16
  %15 = and i32 %14, 64
  %.not4.i = icmp eq i32 %15, 0
  br i1 %.not4.i, label %19, label %16

16:                                               ; preds = %13
  %17 = getelementptr inbounds nuw i8, ptr %12, i64 8
  %18 = load ptr, ptr %17, align 8, !tbaa !54
  call void (ptr, ...) @dt_print_ext(ptr noundef nonnull @.str.11, ptr noundef %18) #10
  br label %19

19:                                               ; preds = %16, %13
  call void @g_error_free(ptr noundef nonnull %12) #10
  call void @g_variant_unref(ptr noundef %11) #10
  br label %64

20:                                               ; preds = %2
  %21 = call ptr @g_variant_get_child_value(ptr noundef %11, i64 noundef 0) #10
  %22 = call i32 @g_variant_get_boolean(ptr noundef %21) #10
  call void @g_variant_unref(ptr noundef %21) #10
  call void @g_variant_unref(ptr noundef %11) #10
  %.not58 = icmp eq i32 %22, 0
  br i1 %.not58, label %64, label %23

23:                                               ; preds = %20
  %24 = load ptr, ptr %8, align 8, !tbaa !57
  %25 = call ptr (ptr, ...) @g_variant_new(ptr noundef nonnull @.str.7, i32 noundef %7, ptr noundef nonnull @.str.31, ptr noundef %1, ptr noundef nonnull @.str.32) #10
  %26 = call ptr @g_dbus_proxy_call_sync(ptr noundef %24, ptr noundef nonnull @.str.8, ptr noundef %25, i32 noundef 0, i32 noundef -1, ptr noundef null, ptr noundef nonnull %3) #10
  %27 = load ptr, ptr %3, align 8, !tbaa !6
  %.not.i62 = icmp eq ptr %27, null
  br i1 %.not.i62, label %35, label %28

28:                                               ; preds = %23
  %29 = load i32, ptr getelementptr inbounds nuw (i8, ptr @darktable, i64 8), align 8, !tbaa !16
  %30 = and i32 %29, 64
  %.not4.i63 = icmp eq i32 %30, 0
  br i1 %.not4.i63, label %34, label %31

31:                                               ; preds = %28
  %32 = getelementptr inbounds nuw i8, ptr %27, i64 8
  %33 = load ptr, ptr %32, align 8, !tbaa !54
  call void (ptr, ...) @dt_print_ext(ptr noundef nonnull @.str.11, ptr noundef %33) #10
  br label %34

34:                                               ; preds = %31, %28
  call void @g_error_free(ptr noundef nonnull %27) #10
  call void @g_variant_unref(ptr noundef %26) #10
  br label %64

35:                                               ; preds = %23
  %36 = call ptr @g_variant_get_child_value(ptr noundef %26, i64 noundef 0) #10
  %37 = call i64 @g_variant_n_children(ptr noundef %36) #10
  %38 = icmp eq i64 %37, 0
  br i1 %38, label %39, label %40

39:                                               ; preds = %35
  call void @g_variant_unref(ptr noundef %36) #10
  call void @g_variant_unref(ptr noundef %26) #10
  br label %64

40:                                               ; preds = %35
  %41 = call ptr @g_variant_get_child_value(ptr noundef %36, i64 noundef 0) #10
  call void @llvm.lifetime.start.p0(i64 8, ptr nonnull %4) #10
  store ptr null, ptr %4, align 8, !tbaa !69
  call void (ptr, ptr, ...) @g_variant_get(ptr noundef %41, ptr noundef nonnull @.str.9, ptr noundef null, ptr noundef nonnull %4) #10
  %42 = load ptr, ptr %4, align 8, !tbaa !69
  %43 = call ptr @g_variant_get_data(ptr noundef %42) #10
  %.not60 = icmp eq ptr %43, null
  br i1 %.not60, label %._crit_edge, label %44

44:                                               ; preds = %40
  %45 = load i32, ptr %43, align 4, !tbaa !60
  %46 = call i32 asm "bswapl $0", "=r,0,~{dirflag},~{fpsr},~{flags}"(i32 %45) #11, !srcloc !71
  %47 = icmp sgt i32 %46, 0
  br i1 %47, label %.lr.ph.preheader, label %._crit_edge

.lr.ph.preheader:                                 ; preds = %44
  %48 = getelementptr inbounds nuw i8, ptr %43, i64 4
  br label %.lr.ph

.lr.ph:                                           ; preds = %.lr.ph.preheader, %60
  %.05571 = phi i32 [ %62, %60 ], [ 0, %.lr.ph.preheader ]
  %.05770 = phi ptr [ %56, %60 ], [ %48, %.lr.ph.preheader ]
  call void @llvm.lifetime.start.p0(i64 4, ptr nonnull %5) #10
  %49 = call fastcc ptr @array2string(ptr noundef %.05770, ptr noundef %5)
  %50 = load i32, ptr %5, align 4, !tbaa !60
  %51 = zext i32 %50 to i64
  %52 = getelementptr inbounds nuw i8, ptr %.05770, i64 %51
  %53 = call fastcc ptr @array2string(ptr noundef %52, ptr noundef %5)
  %54 = load i32, ptr %5, align 4, !tbaa !60
  %55 = zext i32 %54 to i64
  %56 = getelementptr inbounds nuw i8, ptr %52, i64 %55
  %57 = load i32, ptr getelementptr inbounds nuw (i8, ptr @darktable, i64 8), align 8, !tbaa !16
  %58 = and i32 %57, 64
  %.not61 = icmp eq i32 %58, 0
  br i1 %.not61, label %60, label %59

59:                                               ; preds = %.lr.ph
  call void (ptr, ...) @dt_print_ext(ptr noundef nonnull @.str.10, ptr noundef %49, ptr noundef %53) #10
  br label %60

60:                                               ; preds = %59, %.lr.ph
  %61 = call i32 @g_hash_table_insert(ptr noundef %6, ptr noundef %49, ptr noundef %53) #10
  call void @llvm.lifetime.end.p0(i64 4, ptr nonnull %5) #10
  %62 = add nuw nsw i32 %.05571, 1
  %exitcond.not = icmp eq i32 %62, %46
  br i1 %exitcond.not, label %._crit_edge, label %.lr.ph

._crit_edge:                                      ; preds = %60, %44, %40
  %63 = load ptr, ptr %4, align 8, !tbaa !69
  call void @g_variant_unref(ptr noundef %63) #10
  call void @g_variant_unref(ptr noundef %41) #10
  call void @g_variant_unref(ptr noundef %36) #10
  call void @g_variant_unref(ptr noundef %26) #10
  call void @llvm.lifetime.end.p0(i64 8, ptr nonnull %4) #10
  br label %64

64:                                               ; preds = %34, %39, %._crit_edge, %20, %19
  call void @llvm.lifetime.end.p0(i64 8, ptr nonnull %3) #10
  ret ptr %6
}